target datalayout = "e-m:e-p270:32:32-p271:32:32-p272:64:64-i64:64-i128:128-f80:128-n8:16:32:64-S128"
target triple = "x86_64-pc-linux-gnu"

%struct.X509_name_st = type { ptr, i32, ptr, ptr, i32 }
%struct.X509_name_entry_st = type { ptr, ptr, i32, i32 }

@.str = private unnamed_addr constant [126 x i8] c"generated/home/dtcxzyw/WorkSpace/Projects/compilers/llvm-opt-benchmark/bench/libquic/libquic/boringssl/crypto/x509/x509name.c\00", align 1

; Function Attrs: nounwind uwtable
define hidden i32 @X509_NAME_add_entry(ptr noundef %0, ptr noundef %1, i32 noundef %2, i32 noundef %3) #0 {
  %5 = alloca i32, align 4
  %6 = alloca ptr, align 8
  %7 = alloca ptr, align 8
  %8 = alloca i32, align 4
  %9 = alloca i32, align 4
  %10 = alloca ptr, align 8
  %11 = alloca i32, align 4
  %12 = alloca i32, align 4
  %13 = alloca i32, align 4
  %14 = alloca ptr, align 8
  %15 = alloca i32, align 4
  store ptr %0, ptr %6, align 8, !tbaa !6
  store ptr %1, ptr %7, align 8, !tbaa !29
  store i32 %2, ptr %8, align 4, !tbaa !11
  store i32 %3, ptr %9, align 4, !tbaa !11
  call void @llvm.lifetime.start.p0(i64 8, ptr %10) #5
  store ptr null, ptr %10, align 8, !tbaa !29
  call void @llvm.lifetime.start.p0(i64 4, ptr %11) #5
  call void @llvm.lifetime.start.p0(i64 4, ptr %12) #5
  call void @llvm.lifetime.start.p0(i64 4, ptr %13) #5
  call void @llvm.lifetime.start.p0(i64 8, ptr %14) #5
  %16 = load ptr, ptr %6, align 8, !tbaa !6
  %17 = icmp eq ptr %16, null
  br i1 %17, label %18, label %19

18:                                               ; preds = %4
  store i32 0, ptr %5, align 4
  store i32 1, ptr %15, align 4
  br label %133

19:                                               ; preds = %4
  %20 = load ptr, ptr %6, align 8, !tbaa !6
  %21 = getelementptr inbounds nuw %struct.X509_name_st, ptr %20, i32 0, i32 0
  %22 = load ptr, ptr %21, align 8, !tbaa !24
  store ptr %22, ptr %14, align 8, !tbaa !28
  %23 = load ptr, ptr %14, align 8, !tbaa !28
  %24 = call i64 @sk_num(ptr noundef %23)
  %25 = trunc i64 %24 to i32
  store i32 %25, ptr %11, align 4, !tbaa !11
  %26 = load i32, ptr %8, align 4, !tbaa !11
  %27 = load i32, ptr %11, align 4, !tbaa !11
  %28 = icmp sgt i32 %26, %27
  br i1 %28, label %29, label %31

29:                                               ; preds = %19
  %30 = load i32, ptr %11, align 4, !tbaa !11
  store i32 %30, ptr %8, align 4, !tbaa !11
  br label %37

31:                                               ; preds = %19
  %32 = load i32, ptr %8, align 4, !tbaa !11
  %33 = icmp slt i32 %32, 0
  br i1 %33, label %34, label %36

34:                                               ; preds = %31
  %35 = load i32, ptr %11, align 4, !tbaa !11
  store i32 %35, ptr %8, align 4, !tbaa !11
  br label %36

36:                                               ; preds = %34, %31
  br label %37

37:                                               ; preds = %36, %29
  %38 = load ptr, ptr %6, align 8, !tbaa !6
  %39 = getelementptr inbounds nuw %struct.X509_name_st, ptr %38, i32 0, i32 1
  store i32 1, ptr %39, align 8, !tbaa !36
  %40 = load i32, ptr %9, align 4, !tbaa !11
  %41 = icmp eq i32 %40, -1
  br i1 %41, label %42, label %55

42:                                               ; preds = %37
  %43 = load i32, ptr %8, align 4, !tbaa !11
  %44 = icmp eq i32 %43, 0
  br i1 %44, label %45, label %46

45:                                               ; preds = %42
  store i32 0, ptr %9, align 4, !tbaa !11
  store i32 1, ptr %13, align 4, !tbaa !11
  br label %54

46:                                               ; preds = %42
  %47 = load ptr, ptr %14, align 8, !tbaa !28
  %48 = load i32, ptr %8, align 4, !tbaa !11
  %49 = sub nsw i32 %48, 1
  %50 = sext i32 %49 to i64
  %51 = call ptr @sk_value(ptr noundef %47, i64 noundef %50)
  %52 = getelementptr inbounds nuw %struct.X509_name_entry_st, ptr %51, i32 0, i32 2
  %53 = load i32, ptr %52, align 8, !tbaa !37
  store i32 %53, ptr %9, align 4, !tbaa !11
  store i32 0, ptr %13, align 4, !tbaa !11
  br label %54

54:                                               ; preds = %46, %45
  br label %84

55:                                               ; preds = %37
  %56 = load i32, ptr %8, align 4, !tbaa !11
  %57 = load i32, ptr %11, align 4, !tbaa !11
  %58 = icmp sge i32 %56, %57
  br i1 %58, label %59, label %73

59:                                               ; preds = %55
  %60 = load i32, ptr %8, align 4, !tbaa !11
  %61 = icmp ne i32 %60, 0
  br i1 %61, label %62, label %71

62:                                               ; preds = %59
  %63 = load ptr, ptr %14, align 8, !tbaa !28
  %64 = load i32, ptr %8, align 4, !tbaa !11
  %65 = sub nsw i32 %64, 1
  %66 = sext i32 %65 to i64
  %67 = call ptr @sk_value(ptr noundef %63, i64 noundef %66)
  %68 = getelementptr inbounds nuw %struct.X509_name_entry_st, ptr %67, i32 0, i32 2
  %69 = load i32, ptr %68, align 8, !tbaa !37
  %70 = add nsw i32 %69, 1
  store i32 %70, ptr %9, align 4, !tbaa !11
  br label %72

71:                                               ; preds = %59
  store i32 0, ptr %9, align 4, !tbaa !11
  br label %72

72:                                               ; preds = %71, %62
  br label %80

73:                                               ; preds = %55
  %74 = load ptr, ptr %14, align 8, !tbaa !28
  %75 = load i32, ptr %8, align 4, !tbaa !11
  %76 = sext i32 %75 to i64
  %77 = call ptr @sk_value(ptr noundef %74, i64 noundef %76)
  %78 = getelementptr inbounds nuw %struct.X509_name_entry_st, ptr %77, i32 0, i32 2
  %79 = load i32, ptr %78, align 8, !tbaa !37
  store i32 %79, ptr %9, align 4, !tbaa !11
  br label %80

80:                                               ; preds = %73, %72
  %81 = load i32, ptr %9, align 4, !tbaa !11
  %82 = icmp eq i32 %81, 0
  %83 = select i1 %82, i32 1, i32 0
  store i32 %83, ptr %13, align 4, !tbaa !11
  br label %84

84:                                               ; preds = %80, %54
  %85 = load ptr, ptr %7, align 8, !tbaa !29
  %86 = call ptr @X509_NAME_ENTRY_dup(ptr noundef %85)
  store ptr %86, ptr %10, align 8, !tbaa !29
  %87 = icmp eq ptr %86, null
  br i1 %87, label %88, label %89

88:                                               ; preds = %84
  br label %127

89:                                               ; preds = %84
  %90 = load i32, ptr %9, align 4, !tbaa !11
  %91 = load ptr, ptr %10, align 8, !tbaa !29
  %92 = getelementptr inbounds nuw %struct.X509_name_entry_st, ptr %91, i32 0, i32 2
  store i32 %90, ptr %92, align 8, !tbaa !37
  %93 = load ptr, ptr %14, align 8, !tbaa !28
  %94 = load ptr, ptr %10, align 8, !tbaa !29
  %95 = load i32, ptr %8, align 4, !tbaa !11
  %96 = sext i32 %95 to i64
  %97 = call i64 @sk_insert(ptr noundef %93, ptr noundef %94, i64 noundef %96)
  %98 = icmp ne i64 %97, 0
  br i1 %98, label %100, label %99

99:                                               ; preds = %89
  call void @ERR_put_error(i32 noundef 11, i32 noundef 0, i32 noundef 65, ptr noundef @.str, i32 noundef 264)
  br label %127

100:                                              ; preds = %89
  %101 = load i32, ptr %13, align 4, !tbaa !11
  %102 = icmp ne i32 %101, 0
  br i1 %102, label %103, label %126

103:                                              ; preds = %100
  %104 = load ptr, ptr %14, align 8, !tbaa !28
  %105 = call i64 @sk_num(ptr noundef %104)
  %106 = trunc i64 %105 to i32
  store i32 %106, ptr %11, align 4, !tbaa !11
  %107 = load i32, ptr %8, align 4, !tbaa !11
  %108 = add nsw i32 %107, 1
  store i32 %108, ptr %12, align 4, !tbaa !11
  br label %109

109:                                              ; preds = %122, %103
  %110 = load i32, ptr %12, align 4, !tbaa !11
  %111 = load i32, ptr %11, align 4, !tbaa !11
  %112 = icmp slt i32 %110, %111
  br i1 %112, label %113, label %125

113:                                              ; preds = %109
  %114 = load ptr, ptr %14, align 8, !tbaa !28
  %115 = load i32, ptr %12, align 4, !tbaa !11
  %116 = sub nsw i32 %115, 1
  %117 = sext i32 %116 to i64
  %118 = call ptr @sk_value(ptr noundef %114, i64 noundef %117)
  %119 = getelementptr inbounds nuw %struct.X509_name_entry_st, ptr %118, i32 0, i32 2
  %120 = load i32, ptr %119, align 8, !tbaa !37
  %121 = add nsw i32 %120, 1
  store i32 %121, ptr %119, align 8, !tbaa !37
  br label %122

122:                                              ; preds = %113
  %123 = load i32, ptr %12, align 4, !tbaa !11
  %124 = add nsw i32 %123, 1
  store i32 %124, ptr %12, align 4, !tbaa !11
  br label %109, !llvm.loop !41

125:                                              ; preds = %109
  br label %126

126:                                              ; preds = %125, %100
  store i32 1, ptr %5, align 4
  store i32 1, ptr %15, align 4
  br label %133

127:                                              ; preds = %99, %88
  %128 = load ptr, ptr %10, align 8, !tbaa !29
  %129 = icmp ne ptr %128, null
  br i1 %129, label %130, label %132

130:                                              ; preds = %127
  %131 = load ptr, ptr %10, align 8, !tbaa !29
  call void @X509_NAME_ENTRY_free(ptr noundef %131)
  br label %132

132:                                              ; preds = %130, %127
  store i32 0, ptr %5, align 4
  store i32 1, ptr %15, align 4
  br label %133

133:                                              ; preds = %132, %126, %18
  call void @llvm.lifetime.end.p0(i64 8, ptr %14) #5
  call void @llvm.lifetime.end.p0(i64 4, ptr %13) #5
  call void @llvm.lifetime.end.p0(i64 4, ptr %12) #5
  call void @llvm.lifetime.end.p0(i64 4, ptr %11) #5
  call void @llvm.lifetime.end.p0(i64 8, ptr %10) #5
  %134 = load i32, ptr %5, align 4
  ret i32 %134
}