; Function Attrs: nounwind uwtable
define hidden range(i32 0, 2) i32 @X509_NAME_add_entry(ptr noundef captures(address_is_null) %0, ptr noundef %1, i32 noundef %2, i32 noundef %3) local_unnamed_addr #0 {
  %5 = icmp eq ptr %0, null
  br i1 %5, label %.loopexit, label %6

6:                                                ; preds = %4
  %7 = load ptr, ptr %0, align 8, !tbaa !6
  %8 = tail call i64 @sk_num(ptr noundef %7) #7
  %9 = trunc i64 %8 to i32
  %10 = icmp slt i32 %2, 0
  %11 = tail call i32 @llvm.smin.i32(i32 %2, i32 %9)
  %.040 = select i1 %10, i32 %9, i32 %11
  %12 = getelementptr inbounds nuw i8, ptr %0, i64 8
  store i32 1, ptr %12, align 8, !tbaa !27
  %13 = icmp eq i32 %3, -1
  br i1 %13, label %14, label %22

14:                                               ; preds = %6
  %15 = icmp eq i32 %.040, 0
  br i1 %15, label %38, label %16

16:                                               ; preds = %14
  %17 = add nsw i32 %.040, -1
  %18 = sext i32 %17 to i64
  %19 = tail call ptr @sk_value(ptr noundef %7, i64 noundef %18) #7
  %20 = getelementptr inbounds nuw i8, ptr %19, i64 16
  %21 = load i32, ptr %20, align 8, !tbaa !28
  br label %38

22:                                               ; preds = %6
  %.not = icmp slt i32 %.040, %9
  br i1 %.not, label %31, label %23

23:                                               ; preds = %22
  %.not47 = icmp eq i32 %.040, 0
  br i1 %.not47, label %36, label %24

24:                                               ; preds = %23
  %25 = add nsw i32 %.040, -1
  %26 = sext i32 %25 to i64
  %27 = tail call ptr @sk_value(ptr noundef %7, i64 noundef %26) #7
  %28 = getelementptr inbounds nuw i8, ptr %27, i64 16
  %29 = load i32, ptr %28, align 8, !tbaa !28
  %30 = add nsw i32 %29, 1
  br label %36

31:                                               ; preds = %22
  %32 = sext i32 %.040 to i64
  %33 = tail call ptr @sk_value(ptr noundef %7, i64 noundef %32) #7
  %34 = getelementptr inbounds nuw i8, ptr %33, i64 16
  %35 = load i32, ptr %34, align 8, !tbaa !28
  br label %36

36:                                               ; preds = %23, %24, %31
  %.1 = phi i32 [ %30, %24 ], [ %35, %31 ], [ 0, %23 ]
  %37 = icmp ne i32 %.1, 0
  br label %38

38:                                               ; preds = %14, %16, %36
  %.039 = phi i32 [ %21, %16 ], [ %.1, %36 ], [ 0, %14 ]
  %.037 = phi i1 [ true, %16 ], [ %37, %36 ], [ false, %14 ]
  %39 = tail call ptr @X509_NAME_ENTRY_dup(ptr noundef %1) #7
  %cond = icmp eq ptr %39, null
  br i1 %cond, label %.loopexit, label %40

40:                                               ; preds = %38
  %41 = getelementptr inbounds nuw i8, ptr %39, i64 16
  store i32 %.039, ptr %41, align 8, !tbaa !28
  %42 = sext i32 %.040 to i64
  %43 = tail call i64 @sk_insert(ptr noundef %7, ptr noundef nonnull %39, i64 noundef %42) #7
  %.not48 = icmp eq i64 %43, 0
  br i1 %.not48, label %56, label %44

44:                                               ; preds = %40
  br i1 %.037, label %.loopexit, label %45

45:                                               ; preds = %44
  %46 = tail call i64 @sk_num(ptr noundef %7) #7
  %47 = trunc i64 %46 to i32
  %.03851 = add nsw i32 %.040, 1
  %48 = icmp slt i32 %.03851, %47
  br i1 %48, label %.lr.ph.preheader, label %.loopexit

.lr.ph.preheader:                                 ; preds = %45
  %49 = zext i32 %.03851 to i64
  br label %.lr.ph

.lr.ph:                                           ; preds = %.lr.ph.preheader, %.lr.ph
  %indvars.iv = phi i64 [ %49, %.lr.ph.preheader ], [ %indvars.iv.next, %.lr.ph ]
  %.038.in52 = phi i32 [ %.040, %.lr.ph.preheader ], [ %55, %.lr.ph ]
  %50 = sext i32 %.038.in52 to i64
  %51 = tail call ptr @sk_value(ptr noundef %7, i64 noundef %50) #7
  %52 = getelementptr inbounds nuw i8, ptr %51, i64 16
  %53 = load i32, ptr %52, align 8, !tbaa !28
  %54 = add nsw i32 %53, 1
  store i32 %54, ptr %52, align 8, !tbaa !28
  %indvars.iv.next = add i64 %indvars.iv, 1
  %55 = trunc i64 %indvars.iv to i32
  %lftr.wideiv = trunc i64 %indvars.iv.next to i32
  %exitcond.not = icmp eq i32 %lftr.wideiv, %47
  br i1 %exitcond.not, label %.loopexit, label %.lr.ph, !llvm.loop !32

56:                                               ; preds = %40
  tail call void @ERR_put_error(i32 noundef 11, i32 noundef 0, i32 noundef 65, ptr noundef nonnull @.str, i32 noundef 264) #7
  tail call void @X509_NAME_ENTRY_free(ptr noundef nonnull %39) #7
  br label %.loopexit

.loopexit:                                        ; preds = %.lr.ph, %45, %38, %56, %44, %4
  %.0 = phi i32 [ 0, %4 ], [ 1, %44 ], [ 0, %38 ], [ 0, %56 ], [ 1, %45 ], [ 1, %.lr.ph ]
  ret i32 %.0
}